; ModuleID = 'source-C-CXX/57/654.cpp'
source_filename = "source-C-CXX/57/654.cpp"
target datalayout = "e-m:e-p270:32:32-p271:32:32-p272:64:64-i64:64-f80:128-n8:16:32:64-S128"
target triple = "x86_64-pc-linux-gnu"

%"class.std::ios_base::Init" = type { i8 }
%"class.std::basic_istream" = type { i32 (...)**, i64, %"class.std::basic_ios" }
%"class.std::basic_ios" = type { %"class.std::ios_base", %"class.std::basic_ostream"*, i8, i8, %"class.std::basic_streambuf"*, %"class.std::ctype"*, %"class.std::num_put"*, %"class.std::num_get"* }
%"class.std::ios_base" = type { i32 (...)**, i64, i64, i32, i32, i32, %"struct.std::ios_base::_Callback_list"*, %"struct.std::ios_base::_Words", [8 x %"struct.std::ios_base::_Words"], i32, %"struct.std::ios_base::_Words"*, %"class.std::locale" }
%"struct.std::ios_base::_Callback_list" = type { %"struct.std::ios_base::_Callback_list"*, void (i32, %"class.std::ios_base"*, i32)*, i32, i32 }
%"struct.std::ios_base::_Words" = type { i8*, i64 }
%"class.std::locale" = type { %"class.std::locale::_Impl"* }
%"class.std::locale::_Impl" = type { i32, %"class.std::locale::facet"**, i64, %"class.std::locale::facet"**, i8** }
%"class.std::locale::facet" = type <{ i32 (...)**, i32, [4 x i8] }>
%"class.std::basic_ostream" = type { i32 (...)**, %"class.std::basic_ios" }
%"class.std::basic_streambuf" = type { i32 (...)**, i8*, i8*, i8*, i8*, i8*, i8*, %"class.std::locale" }
%"class.std::ctype" = type <{ %"class.std::locale::facet.base", [4 x i8], %struct.__locale_struct*, i8, [7 x i8], i32*, i32*, i16*, i8, [256 x i8], [256 x i8], i8, [6 x i8] }>
%"class.std::locale::facet.base" = type <{ i32 (...)**, i32 }>
%struct.__locale_struct = type { [13 x %struct.__locale_data*], i16*, i32*, i32*, [13 x i8*] }
%struct.__locale_data = type opaque
%"class.std::num_put" = type { %"class.std::locale::facet.base", [4 x i8] }
%"class.std::num_get" = type { %"class.std::locale::facet.base", [4 x i8] }

@_ZStL8__ioinit = internal global %"class.std::ios_base::Init" zeroinitializer, align 1
@__dso_handle = external hidden global i8
@_ZSt3cin = external global %"class.std::basic_istream", align 8
@_ZSt4cout = external global %"class.std::basic_ostream", align 8
@llvm.global_ctors = appending global [1 x { i32, void ()*, i8* }] [{ i32, void ()*, i8* } { i32 65535, void ()* @_GLOBAL__sub_I_654.cpp, i8* null }]

declare void @_ZNSt8ios_base4InitC1Ev(%"class.std::ios_base::Init"* nonnull align 1 dereferenceable(1)) unnamed_addr #0

; Function Attrs: nounwind
declare void @_ZNSt8ios_base4InitD1Ev(%"class.std::ios_base::Init"* nonnull align 1 dereferenceable(1)) unnamed_addr #1

; Function Attrs: nofree nounwind
declare i32 @__cxa_atexit(void (i8*)*, i8*, i8*) local_unnamed_addr #2

; Function Attrs: mustprogress norecurse sspstrong uwtable
define dso_local i32 @main() local_unnamed_addr #3 {
  %1 = alloca i32, align 4
  %2 = alloca [81 x i8], align 16
  %3 = bitcast i32* %1 to i8*
  call void @llvm.lifetime.start.p0i8(i64 4, i8* nonnull %3) #8
  %4 = getelementptr inbounds [81 x i8], [81 x i8]* %2, i64 0, i64 0
  call void @llvm.lifetime.start.p0i8(i64 81, i8* nonnull %4) #8
  %5 = call nonnull align 8 dereferenceable(16) %"class.std::basic_istream"* @_ZNSirsERi(%"class.std::basic_istream"* nonnull align 8 dereferenceable(16) @_ZSt3cin, i32* nonnull align 4 dereferenceable(4) %1)
  %6 = call i32 @_ZNSi3getEv(%"class.std::basic_istream"* nonnull align 8 dereferenceable(16) @_ZSt3cin)
  %7 = load i32, i32* %1, align 4, !tbaa !5
  %8 = add nsw i32 %7, -1
  store i32 %8, i32* %1, align 4, !tbaa !5
  %9 = icmp eq i32 %7, 0
  br i1 %9, label %142, label %10

10:                                               ; preds = %0, %135
  %11 = load i8*, i8** bitcast (%"class.std::basic_istream"* @_ZSt3cin to i8**), align 8, !tbaa !9
  %12 = getelementptr i8, i8* %11, i64 -24
  %13 = bitcast i8* %12 to i64*
  %14 = load i64, i64* %13, align 8
  %15 = add nsw i64 %14, 240
  %16 = getelementptr inbounds i8, i8* bitcast (%"class.std::basic_istream"* @_ZSt3cin to i8*), i64 %15
  %17 = bitcast i8* %16 to %"class.std::ctype"**
  %18 = load %"class.std::ctype"*, %"class.std::ctype"** %17, align 8, !tbaa !11
  %19 = icmp eq %"class.std::ctype"* %18, null
  br i1 %19, label %20, label %21

20:                                               ; preds = %10
  call void @_ZSt16__throw_bad_castv() #9
  unreachable

21:                                               ; preds = %10
  %22 = getelementptr inbounds %"class.std::ctype", %"class.std::ctype"* %18, i64 0, i32 8
  %23 = load i8, i8* %22, align 8, !tbaa !15
  %24 = icmp eq i8 %23, 0
  br i1 %24, label %28, label %25

25:                                               ; preds = %21
  %26 = getelementptr inbounds %"class.std::ctype", %"class.std::ctype"* %18, i64 0, i32 9, i64 10
  %27 = load i8, i8* %26, align 1, !tbaa !17
  br label %34

28:                                               ; preds = %21
  call void @_ZNKSt5ctypeIcE13_M_widen_initEv(%"class.std::ctype"* nonnull align 8 dereferenceable(570) %18)
  %29 = bitcast %"class.std::ctype"* %18 to i8 (%"class.std::ctype"*, i8)***
  %30 = load i8 (%"class.std::ctype"*, i8)**, i8 (%"class.std::ctype"*, i8)*** %29, align 8, !tbaa !9
  %31 = getelementptr inbounds i8 (%"class.std::ctype"*, i8)*, i8 (%"class.std::ctype"*, i8)** %30, i64 6
  %32 = load i8 (%"class.std::ctype"*, i8)*, i8 (%"class.std::ctype"*, i8)** %31, align 8
  %33 = call signext i8 %32(%"class.std::ctype"* nonnull align 8 dereferenceable(570) %18, i8 signext 10)
  br label %34

34:                                               ; preds = %25, %28
  %35 = phi i8 [ %27, %25 ], [ %33, %28 ]
  %36 = call nonnull align 8 dereferenceable(16) %"class.std::basic_istream"* @_ZNSi7getlineEPclc(%"class.std::basic_istream"* nonnull align 8 dereferenceable(16) @_ZSt3cin, i8* nonnull %4, i64 81, i8 signext %35)
  %37 = call i64 @strlen(i8* noundef nonnull %4) #10
  %38 = trunc i64 %37 to i32
  %39 = load i8, i8* %4, align 16, !tbaa !17
  %40 = icmp eq i8 %39, 95
  %41 = and i8 %39, -33
  %42 = add i8 %41, -65
  %43 = icmp ult i8 %42, 26
  %44 = or i1 %43, %40
  %45 = zext i1 %44 to i32
  %46 = icmp sgt i32 %38, 1
  br i1 %46, label %47, label %107

47:                                               ; preds = %34
  %48 = and i64 %37, 4294967295
  %49 = add nsw i64 %48, -1
  %50 = and i64 %49, 1
  %51 = icmp eq i64 %48, 2
  br i1 %51, label %88, label %52

52:                                               ; preds = %47
  %53 = and i64 %49, -2
  br label %54

54:                                               ; preds = %54, %52
  %55 = phi i64 [ 1, %52 ], [ %85, %54 ]
  %56 = phi i32 [ %45, %52 ], [ %84, %54 ]
  %57 = phi i64 [ %53, %52 ], [ %86, %54 ]
  %58 = getelementptr inbounds [81 x i8], [81 x i8]* %2, i64 0, i64 %55
  %59 = load i8, i8* %58, align 1, !tbaa !17
  %60 = icmp ne i8 %59, 95
  %61 = add i8 %59, -97
  %62 = icmp ugt i8 %61, 25
  %63 = and i1 %60, %62
  %64 = add i8 %59, -65
  %65 = icmp ugt i8 %64, 25
  %66 = and i1 %65, %63
  %67 = add i8 %59, -48
  %68 = icmp ugt i8 %67, 9
  %69 = select i1 %66, i1 %68, i1 false
  %70 = add nuw nsw i64 %55, 1
  %71 = getelementptr inbounds [81 x i8], [81 x i8]* %2, i64 0, i64 %70
  %72 = load i8, i8* %71, align 1, !tbaa !17
  %73 = icmp ne i8 %72, 95
  %74 = add i8 %72, -97
  %75 = icmp ugt i8 %74, 25
  %76 = and i1 %73, %75
  %77 = add i8 %72, -65
  %78 = icmp ugt i8 %77, 25
  %79 = and i1 %78, %76
  %80 = add i8 %72, -48
  %81 = icmp ugt i8 %80, 9
  %82 = select i1 %79, i1 %81, i1 false
  %83 = select i1 %82, i1 true, i1 %69
  %84 = select i1 %83, i32 0, i32 %56
  %85 = add nuw nsw i64 %55, 2
  %86 = add i64 %57, -2
  %87 = icmp eq i64 %86, 0
  br i1 %87, label %88, label %54, !llvm.loop !18

88:                                               ; preds = %54, %47
  %89 = phi i32 [ undef, %47 ], [ %84, %54 ]
  %90 = phi i64 [ 1, %47 ], [ %85, %54 ]
  %91 = phi i32 [ %45, %47 ], [ %84, %54 ]
  %92 = icmp eq i64 %50, 0
  br i1 %92, label %107, label %93

93:                                               ; preds = %88
  %94 = getelementptr inbounds [81 x i8], [81 x i8]* %2, i64 0, i64 %90
  %95 = load i8, i8* %94, align 1, !tbaa !17
  %96 = add i8 %95, -65
  %97 = icmp ugt i8 %96, 25
  %98 = icmp ne i8 %95, 95
  %99 = add i8 %95, -97
  %100 = icmp ugt i8 %99, 25
  %101 = and i1 %98, %100
  %102 = and i1 %97, %101
  %103 = add i8 %95, -48
  %104 = icmp ugt i8 %103, 9
  %105 = select i1 %102, i1 %104, i1 false
  %106 = select i1 %105, i32 0, i32 %91
  br label %107

107:                                              ; preds = %93, %88, %34
  %108 = phi i32 [ %45, %34 ], [ %89, %88 ], [ %106, %93 ]
  %109 = call nonnull align 8 dereferenceable(8) %"class.std::basic_ostream"* @_ZNSolsEi(%"class.std::basic_ostream"* nonnull align 8 dereferenceable(8) @_ZSt4cout, i32 %108)
  %110 = bitcast %"class.std::basic_ostream"* %109 to i8**
  %111 = load i8*, i8** %110, align 8, !tbaa !9
  %112 = getelementptr i8, i8* %111, i64 -24
  %113 = bitcast i8* %112 to i64*
  %114 = load i64, i64* %113, align 8
  %115 = bitcast %"class.std::basic_ostream"* %109 to i8*
  %116 = add nsw i64 %114, 240
  %117 = getelementptr inbounds i8, i8* %115, i64 %116
  %118 = bitcast i8* %117 to %"class.std::ctype"**
  %119 = load %"class.std::ctype"*, %"class.std::ctype"** %118, align 8, !tbaa !11
  %120 = icmp eq %"class.std::ctype"* %119, null
  br i1 %120, label %121, label %122

121:                                              ; preds = %107
  call void @_ZSt16__throw_bad_castv() #9
  unreachable

122:                                              ; preds = %107
  %123 = getelementptr inbounds %"class.std::ctype", %"class.std::ctype"* %119, i64 0, i32 8
  %124 = load i8, i8* %123, align 8, !tbaa !15
  %125 = icmp eq i8 %124, 0
  br i1 %125, label %129, label %126

126:                                              ; preds = %122
  %127 = getelementptr inbounds %"class.std::ctype", %"class.std::ctype"* %119, i64 0, i32 9, i64 10
  %128 = load i8, i8* %127, align 1, !tbaa !17
  br label %135

129:                                              ; preds = %122
  call void @_ZNKSt5ctypeIcE13_M_widen_initEv(%"class.std::ctype"* nonnull align 8 dereferenceable(570) %119)
  %130 = bitcast %"class.std::ctype"* %119 to i8 (%"class.std::ctype"*, i8)***
  %131 = load i8 (%"class.std::ctype"*, i8)**, i8 (%"class.std::ctype"*, i8)*** %130, align 8, !tbaa !9
  %132 = getelementptr inbounds i8 (%"class.std::ctype"*, i8)*, i8 (%"class.std::ctype"*, i8)** %131, i64 6
  %133 = load i8 (%"class.std::ctype"*, i8)*, i8 (%"class.std::ctype"*, i8)** %132, align 8
  %134 = call signext i8 %133(%"class.std::ctype"* nonnull align 8 dereferenceable(570) %119, i8 signext 10)
  br label %135

135:                                              ; preds = %126, %129
  %136 = phi i8 [ %128, %126 ], [ %134, %129 ]
  %137 = call nonnull align 8 dereferenceable(8) %"class.std::basic_ostream"* @_ZNSo3putEc(%"class.std::basic_ostream"* nonnull align 8 dereferenceable(8) %109, i8 signext %136)
  %138 = call nonnull align 8 dereferenceable(8) %"class.std::basic_ostream"* @_ZNSo5flushEv(%"class.std::basic_ostream"* nonnull align 8 dereferenceable(8) %137)
  %139 = load i32, i32* %1, align 4, !tbaa !5
  %140 = add nsw i32 %139, -1
  store i32 %140, i32* %1, align 4, !tbaa !5
  %141 = icmp eq i32 %139, 0
  br i1 %141, label %142, label %10, !llvm.loop !20

142:                                              ; preds = %135, %0
  call void @llvm.lifetime.end.p0i8(i64 81, i8* nonnull %4) #8
  call void @llvm.lifetime.end.p0i8(i64 4, i8* nonnull %3) #8
  ret i32 0
}

; Function Attrs: argmemonly mustprogress nofree nosync nounwind willreturn
declare void @llvm.lifetime.start.p0i8(i64 immarg, i8* nocapture) #4

declare nonnull align 8 dereferenceable(16) %"class.std::basic_istream"* @_ZNSirsERi(%"class.std::basic_istream"* nonnull align 8 dereferenceable(16), i32* nonnull align 4 dereferenceable(4)) local_unnamed_addr #0

declare i32 @_ZNSi3getEv(%"class.std::basic_istream"* nonnull align 8 dereferenceable(16)) local_unnamed_addr #0

; Function Attrs: argmemonly mustprogress nofree nounwind readonly willreturn
declare i64 @strlen(i8* nocapture) local_unnamed_addr #5

declare nonnull align 8 dereferenceable(8) %"class.std::basic_ostream"* @_ZNSolsEi(%"class.std::basic_ostream"* nonnull align 8 dereferenceable(8), i32) local_unnamed_addr #0

; Function Attrs: argmemonly mustprogress nofree nosync nounwind willreturn
declare void @llvm.lifetime.end.p0i8(i64 immarg, i8* nocapture) #4

declare nonnull align 8 dereferenceable(16) %"class.std::basic_istream"* @_ZNSi7getlineEPclc(%"class.std::basic_istream"* nonnull align 8 dereferenceable(16), i8*, i64, i8 signext) local_unnamed_addr #0

; Function Attrs: noreturn
declare void @_ZSt16__throw_bad_castv() local_unnamed_addr #6

declare void @_ZNKSt5ctypeIcE13_M_widen_initEv(%"class.std::ctype"* nonnull align 8 dereferenceable(570)) local_unnamed_addr #0

declare nonnull align 8 dereferenceable(8) %"class.std::basic_ostream"* @_ZNSo3putEc(%"class.std::basic_ostream"* nonnull align 8 dereferenceable(8), i8 signext) local_unnamed_addr #0

declare nonnull align 8 dereferenceable(8) %"class.std::basic_ostream"* @_ZNSo5flushEv(%"class.std::basic_ostream"* nonnull align 8 dereferenceable(8)) local_unnamed_addr #0

; Function Attrs: sspstrong uwtable
define internal void @_GLOBAL__sub_I_654.cpp() #7 section ".text.startup" {
  tail call void @_ZNSt8ios_base4InitC1Ev(%"class.std::ios_base::Init"* nonnull align 1 dereferenceable(1) @_ZStL8__ioinit)
  %1 = tail call i32 @__cxa_atexit(void (i8*)* bitcast (void (%"class.std::ios_base::Init"*)* @_ZNSt8ios_base4InitD1Ev to void (i8*)*), i8* getelementptr inbounds (%"class.std::ios_base::Init", %"class.std::ios_base::Init"* @_ZStL8__ioinit, i64 0, i32 0), i8* nonnull @__dso_handle) #8
  ret void
}


!llvm.module.flags = !{!0, !1, !2, !3}
!llvm.ident = !{!4}

!0 = !{i32 1, !"wchar_size", i32 4}
!1 = !{i32 7, !"PIC Level", i32 2}
!2 = !{i32 7, !"PIE Level", i32 2}
!3 = !{i32 7, !"uwtable", i32 1}
!4 = !{!"clang version 13.0.0"}
!5 = !{!6, !6, i64 0}
!6 = !{!"int", !7, i64 0}
!7 = !{!"omnipotent char", !8, i64 0}
!8 = !{!"Simple C++ TBAA"}
!9 = !{!10, !10, i64 0}
!10 = !{!"vtable pointer", !8, i64 0}
!11 = !{!12, !13, i64 240}
!12 = !{!"_ZTSSt9basic_iosIcSt11char_traitsIcEE", !13, i64 216, !7, i64 224, !14, i64 225, !13, i64 232, !13, i64 240, !13, i64 248, !13, i64 256}
!13 = !{!"any pointer", !7, i64 0}
!14 = !{!"bool", !7, i64 0}
!15 = !{!16, !7, i64 56}
!16 = !{!"_ZTSSt5ctypeIcE", !13, i64 16, !14, i64 24, !13, i64 32, !13, i64 40, !13, i64 48, !7, i64 56, !7, i64 57, !7, i64 313, !7, i64 569}
!17 = !{!7, !7, i64 0}
!18 = distinct !{!18, !19}
!19 = !{!"llvm.loop.mustprogress"}
!20 = distinct !{!20, !19}
